; Function Attrs: nounwind uwtable
define void @addShiftValuesToQASM(ptr noundef readonly byval(%struct.Qureg) align 8 captures(none) %0, i32 noundef %1, i32 noundef %2, ptr noundef readonly captures(none) %3) local_unnamed_addr #0 {
  %5 = alloca [1025 x i8], align 16
  call void @llvm.lifetime.start.p0(i64 1025, ptr nonnull %5) #16
  switch i32 %1, label %.loopexit [
    i32 4, label %8
    i32 13, label %6
  ]

6:                                                ; preds = %4
  %7 = sdiv i32 %2, 2
  br label %8

8:                                                ; preds = %4, %6
  %.014 = phi i32 [ %7, %6 ], [ %2, %4 ]
  tail call void (ptr, ptr, ...) @qasm_recordComment(ptr noundef nonnull byval(%struct.Qureg) align 8 %0, ptr noundef nonnull @.str.66)
  %invariant.gep = getelementptr inbounds nuw i8, ptr %3, i64 16
  %9 = icmp sgt i32 %.014, 0
  br i1 %9, label %.lr.ph, label %.loopexit

.lr.ph:                                           ; preds = %8
  %.sroa.3.0..sroa_idx = getelementptr inbounds nuw i8, ptr %0, i64 128
  %wide.trip.count = zext nneg i32 %.014 to i64
  br label %10

10:                                               ; preds = %.lr.ph, %addStringToQASM.exit
  %indvars.iv = phi i64 [ 0, %.lr.ph ], [ %indvars.iv.next, %addStringToQASM.exit ]
  %gep = getelementptr inbounds nuw double, ptr %invariant.gep, i64 %indvars.iv
  %11 = load double, ptr %gep, align 8, !tbaa !22
  %12 = trunc nuw nsw i64 %indvars.iv to i32
  %13 = call i32 (ptr, i64, ptr, ...) @snprintf(ptr noundef nonnull dereferenceable(1) %5, i64 noundef 1024, ptr noundef nonnull @.str.67, i32 noundef %12, double noundef %11) #16
  %14 = icmp sgt i32 %13, 1023
  br i1 %14, label %15, label %16

15:                                               ; preds = %10
  call void @raiseQASMBufferOverflow(ptr noundef nonnull @__func__.addShiftValuesToQASM) #16
  br label %16

16:                                               ; preds = %15, %10
  %.sroa.3.0.copyload = load ptr, ptr %.sroa.3.0..sroa_idx, align 8
  %17 = load ptr, ptr %.sroa.3.0.copyload, align 8, !tbaa !18
  %18 = getelementptr inbounds nuw i8, ptr %.sroa.3.0.copyload, i64 8
  %19 = load i32, ptr %18, align 8, !tbaa !17
  %20 = getelementptr inbounds nuw i8, ptr %.sroa.3.0.copyload, i64 12
  %21 = load i32, ptr %20, align 4, !tbaa !20
  %22 = add nsw i32 %21, %13
  %23 = icmp sgt i32 %22, %19
  br i1 %23, label %24, label %addStringToQASM.exit

24:                                               ; preds = %16
  %25 = shl nsw i32 %19, 1
  %26 = icmp sgt i32 %22, %25
  br i1 %26, label %27, label %28

27:                                               ; preds = %24
  call void @raiseQASMBufferOverflow(ptr noundef nonnull @__func__.addStringToQASM) #16
  br label %28

28:                                               ; preds = %27, %24
  %29 = sext i32 %25 to i64
  %30 = call noalias ptr @malloc(i64 noundef %29) #15
  %strcpy.i = call ptr @strcpy(ptr noundef nonnull dereferenceable(1) %30, ptr noundef nonnull dereferenceable(1) %17)
  call void @free(ptr noundef %17) #16
  store i32 %25, ptr %18, align 8, !tbaa !17
  store ptr %30, ptr %.sroa.3.0.copyload, align 8, !tbaa !18
  br label %addStringToQASM.exit

addStringToQASM.exit:                             ; preds = %16, %28
  %.020.i = phi i32 [ %25, %28 ], [ %19, %16 ]
  %.0.i = phi ptr [ %30, %28 ], [ %17, %16 ]
  %31 = sext i32 %21 to i64
  %32 = getelementptr inbounds i8, ptr %.0.i, i64 %31
  %33 = sub nsw i32 %.020.i, %21
  %34 = sext i32 %33 to i64
  %35 = call i32 (ptr, i64, ptr, ...) @snprintf(ptr noundef %32, i64 noundef %34, ptr noundef nonnull @.str.3, ptr noundef nonnull %5) #16
  %36 = load i32, ptr %20, align 4, !tbaa !20
  %37 = add nsw i32 %36, %35
  store i32 %37, ptr %20, align 4, !tbaa !20
  %indvars.iv.next = add nuw nsw i64 %indvars.iv, 1
  %exitcond.not = icmp eq i64 %indvars.iv.next, %wide.trip.count
  br i1 %exitcond.not, label %.loopexit, label %10

.loopexit:                                        ; preds = %addStringToQASM.exit, %8, %4
  call void @llvm.lifetime.end.p0(i64 1025, ptr nonnull %5) #16
  ret void
}